(dp1
S'sg_version_data'
p2
(dp3
S'code'
p4
S'v2.0.4'
p5
sS'description'
p6
NsS'tags'
p7
(lp8
sS'sg_payload'
p9
(dp10
S'name'
p11
S'tk-vred_v2.0.4.zip'
p12
sS'url'
p13
S'https://sg-media-usor-01.s3-accelerate.amazonaws.com/d18c13bf0e59a9a82f18be518a1b6b508bcbd774/d62ad01ba8f8c47e6d3715c5a330c231026dbf29/tk-vred_v2.0.4.zip?response-content-disposition=filename%3D%22tk-vred_v2.0.4.zip%22&x-amz-meta-user-id=13413&x-amz-meta-user-type=ApiUser&X-Amz-Algorithm=AWS4-HMAC-SHA256&X-Amz-Credential=AKIAYJG6Z4JIW4LDLVRF%2F20200406%2Fus-west-2%2Fs3%2Faws4_request&X-Amz-Date=20200406T152017Z&X-Amz-Expires=900&X-Amz-SignedHeaders=host&X-Amz-Signature=9cd83cf6c1cea62b7c13104429901eff97a0c7bdcbf69a2452e5b9eb337bf4be'
p14
sS'content_type'
p15
S'application/zip'
p16
sS'type'
p17
S'Attachment'
p18
sS'id'
p19
I21985
sS'link_type'
p20
S'upload'
p21
ssS'sg_status_list'
p22
S'prod'
p23
sS'sg_detailed_release_notes'
p24
(dp25
S'name'
p26
S'v2.0.4'
p27
sS'url'
p28
S'https://support.shotgunsoftware.com/hc/en-us/articles/360007496994#v2.0.4'
p29
sS'content_type'
p30
NsS'type'
p31
S'Attachment'
p32
sS'id'
p33
I21982
sS'link_type'
p34
S'web'
p35
ssS'sg_documentation'
p36
(dp37
S'name'
p38
S'Documentation'
p39
sS'url'
p40
S'https://support.shotgunsoftware.com/hc/en-us/articles/360007496994'
p41
sS'content_type'
p42
NsS'type'
p43
S'Attachment'
p44
sS'id'
p45
I21984
sS'link_type'
p46
S'web'
p47
ssS'type'
p48
S'CustomNonProjectEntity04'
p49
sS'id'
p50
I1215
ssS'sg_bundle_data'
p51
(dp52
S'sg_status_list'
p53
S'depl'
p54
sS'type'
p55
S'CustomNonProjectEntity03'
p56
sS'id'
p57
I121
sS'sg_system_name'
p58
S'tk-vred'
p59
sS'sg_deprecation_message'
p60
Nss.