(dp1
S'sg_version_data'
p2
(dp3
S'code'
p4
S'v0.19.4'
p5
sS'description'
p6
S'Bug fixes.'
p7
sS'tags'
p8
(lp9
sS'sg_payload'
p10
(dp11
S'name'
p12
S'sgtk_core_v0.19.4.zip'
p13
sS'url'
p14
S'https://sg-media-usor-01.s3-accelerate.amazonaws.com/d18c13bf0e59a9a82f18be518a1b6b508bcbd774/83fccd04fb6b35212bbc0461c5aef93d695bc9c7/sgtk_core_v0.19.4.zip?response-content-disposition=filename%3D%22sgtk_core_v0.19.4.zip%22&x-amz-meta-user-id=34414&x-amz-meta-user-type=ApiUser&X-Amz-Algorithm=AWS4-HMAC-SHA256&X-Amz-Credential=AKIAYJG6Z4JIW4LDLVRF%2F20200331%2Fus-west-2%2Fs3%2Faws4_request&X-Amz-Date=20200331T081531Z&X-Amz-Expires=900&X-Amz-SignedHeaders=host&X-Amz-Signature=caa8752f10a559e86763adcbad066158089f19b014b8128ed15bbbe54b497759'
p15
sS'content_type'
p16
S'application/zip'
p17
sS'type'
p18
S'Attachment'
p19
sS'id'
p20
I21973
sS'link_type'
p21
S'upload'
p22
ssS'sg_status_list'
p23
S'prod'
p24
sS'sg_detailed_release_notes'
p25
(dp26
S'name'
p27
S'v0.19.4'
p28
sS'url'
p29
S'https://support.shotgunsoftware.com/hc/en-us/articles/219039838#v0.19.4'
p30
sS'content_type'
p31
NsS'type'
p32
S'Attachment'
p33
sS'id'
p34
I21971
sS'link_type'
p35
S'web'
p36
ssS'sg_documentation'
p37
(dp38
S'name'
p39
S'Documentation'
p40
sS'url'
p41
S'https://support.shotgunsoftware.com/hc/en-us/articles/219039808'
p42
sS'content_type'
p43
NsS'type'
p44
S'Attachment'
p45
sS'id'
p46
I21972
sS'link_type'
p47
S'web'
p48
ssS'type'
p49
S'CustomNonProjectEntity01'
p50
sS'id'
p51
I813
ssS'sg_bundle_data'
p52
Ns.