(dp1
S'sg_version_data'
p2
(dp3
S'code'
p4
S'v2.5.0'
p5
sS'description'
p6
S'Adds Python 3 support and a bug fix.'
p7
sS'tags'
p8
(lp9
sS'sg_payload'
p10
(dp11
S'name'
p12
S'tk-multi-publish2_v2.5.0.zip'
p13
sS'url'
p14
S'https://sg-media-usor-01.s3-accelerate.amazonaws.com/d18c13bf0e59a9a82f18be518a1b6b508bcbd774/bf345188dd15cc13c7f91e817cd5ac6874a39e08/tk-multi-publish2_v2.5.0.zip?response-content-disposition=filename%3D%22tk-multi-publish2_v2.5.0.zip%22&x-amz-meta-user-id=13413&x-amz-meta-user-type=ApiUser&X-Amz-Algorithm=AWS4-HMAC-SHA256&X-Amz-Credential=AKIAYJG6Z4JIW4LDLVRF%2F20200406%2Fus-west-2%2Fs3%2Faws4_request&X-Amz-Date=20200406T151850Z&X-Amz-Expires=900&X-Amz-SignedHeaders=host&X-Amz-Signature=09bc79e475d5f9cc5ac1240b4bb15daab7fcaa30e5079bc3e56f4bca34da2c85'
p15
sS'content_type'
p16
S'application/zip'
p17
sS'type'
p18
S'Attachment'
p19
sS'id'
p20
I21977
sS'link_type'
p21
S'upload'
p22
ssS'sg_status_list'
p23
S'prod'
p24
sS'sg_detailed_release_notes'
p25
(dp26
S'name'
p27
S'v2.5.0'
p28
sS'url'
p29
S'https://support.shotgunsoftware.com/hc/en-us/articles/115000097513#v2.5.0'
p30
sS'content_type'
p31
NsS'type'
p32
S'Attachment'
p33
sS'id'
p34
I21974
sS'link_type'
p35
S'web'
p36
ssS'sg_documentation'
p37
(dp38
S'name'
p39
S'Documentation'
p40
sS'url'
p41
S'https://support.shotgunsoftware.com/hc/en-us/articles/115000097513'
p42
sS'content_type'
p43
NsS'type'
p44
S'Attachment'
p45
sS'id'
p46
I21976
sS'link_type'
p47
S'web'
p48
ssS'type'
p49
S'CustomNonProjectEntity05'
p50
sS'id'
p51
I3023
ssS'sg_bundle_data'
p52
(dp53
S'sg_status_list'
p54
S'depl'
p55
sS'type'
p56
S'CustomNonProjectEntity02'
p57
sS'id'
p58
I231
sS'sg_system_name'
p59
S'tk-multi-publish2'
p60
sS'sg_deprecation_message'
p61
Nss.