(dp1
S'sg_version_data'
p2
(dp3
S'code'
p4
S'v0.2.0'
p5
sS'description'
p6
S'A bugfix and adds Python 3 support.'
p7
sS'tags'
p8
(lp9
sS'sg_payload'
p10
(dp11
S'name'
p12
S'tk-aftereffects_v0.2.0.zip'
p13
sS'url'
p14
S'https://sg-media-usor-01.s3-accelerate.amazonaws.com/d18c13bf0e59a9a82f18be518a1b6b508bcbd774/8d9e94729979fdf6bb2ce468def3fcf122166133/tk-aftereffects_v0.2.0.zip?response-content-disposition=filename%3D%22tk-aftereffects_v0.2.0.zip%22&x-amz-meta-user-id=13413&x-amz-meta-user-type=ApiUser&X-Amz-Algorithm=AWS4-HMAC-SHA256&X-Amz-Credential=AKIAYJG6Z4JIW4LDLVRF%2F20200406%2Fus-west-2%2Fs3%2Faws4_request&X-Amz-Date=20200406T151931Z&X-Amz-Expires=900&X-Amz-SignedHeaders=host&X-Amz-Signature=e9c5c815eae476812ff007a503cc330cb75ebacf6af4a82a7dc03aa240f7e42d'
p15
sS'content_type'
p16
S'application/zip'
p17
sS'type'
p18
S'Attachment'
p19
sS'id'
p20
I21941
sS'link_type'
p21
S'upload'
p22
ssS'sg_status_list'
p23
S'prod'
p24
sS'sg_detailed_release_notes'
p25
(dp26
S'name'
p27
S'v0.2.0'
p28
sS'url'
p29
S'https://support.shotgunsoftware.com/hc/en-us/articles/360019541533#v0.2.0'
p30
sS'content_type'
p31
NsS'type'
p32
S'Attachment'
p33
sS'id'
p34
I21938
sS'link_type'
p35
S'web'
p36
ssS'sg_documentation'
p37
(dp38
S'name'
p39
S'Documentation'
p40
sS'url'
p41
S'https://support.shotgunsoftware.com/hc/en-us/articles/360019541533'
p42
sS'content_type'
p43
NsS'type'
p44
S'Attachment'
p45
sS'id'
p46
I21940
sS'link_type'
p47
S'web'
p48
ssS'type'
p49
S'CustomNonProjectEntity04'
p50
sS'id'
p51
I1213
ssS'sg_bundle_data'
p52
(dp53
S'sg_status_list'
p54
S'depl'
p55
sS'type'
p56
S'CustomNonProjectEntity03'
p57
sS'id'
p58
I154
sS'sg_system_name'
p59
S'tk-aftereffects'
p60
sS'sg_deprecation_message'
p61
Nss.