(dp1
S'sg_version_data'
p2
(dp3
S'code'
p4
S'v0.4.0'
p5
sS'description'
p6
S'Adds support for Python 3.'
p7
sS'tags'
p8
(lp9
sS'sg_payload'
p10
(dp11
S'name'
p12
S'tk-houdini-mantranode_v0.4.0.zip'
p13
sS'url'
p14
S'https://sg-media-usor-01.s3-accelerate.amazonaws.com/d18c13bf0e59a9a82f18be518a1b6b508bcbd774/3769b785d55c1a2d72aad8905ba9cb2803ed39d2/tk-houdini-mantranode_v0.4.0.zip?response-content-disposition=filename%3D%22tk-houdini-mantranode_v0.4.0.zip%22&x-amz-meta-user-id=13413&x-amz-meta-user-type=ApiUser&X-Amz-Algorithm=AWS4-HMAC-SHA256&X-Amz-Credential=AKIAYJG6Z4JIW4LDLVRF%2F20200406%2Fus-west-2%2Fs3%2Faws4_request&X-Amz-Date=20200406T152146Z&X-Amz-Expires=900&X-Amz-SignedHeaders=host&X-Amz-Signature=0f6f97a74c5318f676785b17d7bd8a5da4480132c5cf3995dfcff13362b80d6a'
p15
sS'content_type'
p16
S'application/zip'
p17
sS'type'
p18
S'Attachment'
p19
sS'id'
p20
I22001
sS'link_type'
p21
S'upload'
p22
ssS'sg_status_list'
p23
S'prod'
p24
sS'sg_detailed_release_notes'
p25
(dp26
S'name'
p27
S'v0.4.0'
p28
sS'url'
p29
S'https://support.shotgunsoftware.com/hc/en-us/articles/219039998#v0.4.0'
p30
sS'content_type'
p31
NsS'type'
p32
S'Attachment'
p33
sS'id'
p34
I21998
sS'link_type'
p35
S'web'
p36
ssS'sg_documentation'
p37
(dp38
S'name'
p39
S'Documentation'
p40
sS'url'
p41
S'https://support.shotgunsoftware.com/hc/en-us/articles/219039998'
p42
sS'content_type'
p43
NsS'type'
p44
S'Attachment'
p45
sS'id'
p46
I22000
sS'link_type'
p47
S'web'
p48
ssS'type'
p49
S'CustomNonProjectEntity05'
p50
sS'id'
p51
I3026
ssS'sg_bundle_data'
p52
(dp53
S'sg_status_list'
p54
S'depl'
p55
sS'type'
p56
S'CustomNonProjectEntity02'
p57
sS'id'
p58
I96
sS'sg_system_name'
p59
S'tk-houdini-mantranode'
p60
sS'sg_deprecation_message'
p61
Nss.