(dp1
S'sg_version_data'
p2
(dp3
S'code'
p4
S'v2.0.5'
p5
sS'description'
p6
NsS'tags'
p7
(lp8
sS'sg_payload'
p9
(dp10
S'name'
p11
S'tk-alias_v2.0.5.zip'
p12
sS'url'
p13
S'https://tank.shotgunstudio.com/file_serve/attachment/21883'
p14
sS'content_type'
p15
S'application/zip'
p16
sS'type'
p17
S'Attachment'
p18
sS'id'
p19
I21883
sS'link_type'
p20
S'upload'
p21
ssS'sg_status_list'
p22
S'prod'
p23
sS'sg_detailed_release_notes'
p24
(dp25
S'name'
p26
S'v2.0.5'
p27
sS'url'
p28
S'https://support.shotgunsoftware.com/hc/en-us/articles/360007496974#v2.0.5'
p29
sS'content_type'
p30
NsS'type'
p31
S'Attachment'
p32
sS'id'
p33
I21880
sS'link_type'
p34
S'web'
p35
ssS'sg_documentation'
p36
(dp37
S'name'
p38
S'Documentation'
p39
sS'url'
p40
S'https://support.shotgunsoftware.com/hc/en-us/articles/360007496974'
p41
sS'content_type'
p42
NsS'type'
p43
S'Attachment'
p44
sS'id'
p45
I21882
sS'link_type'
p46
S'web'
p47
ssS'type'
p48
S'CustomNonProjectEntity04'
p49
sS'id'
p50
I1208
ssS'sg_bundle_data'
p51
(dp52
S'sg_status_list'
p53
S'depl'
p54
sS'type'
p55
S'CustomNonProjectEntity03'
p56
sS'id'
p57
I122
sS'sg_system_name'
p58
S'tk-alias'
p59
sS'sg_deprecation_message'
p60
Nss.